; Function Attrs: mustprogress nounwind uwtable
define hidden void @_ZN14ZPageAllocator17decrease_capacityEmb(ptr noundef nonnull align 8 dereferenceable(609) %0, i64 noundef %1, i1 noundef zeroext %2) local_unnamed_addr #1 align 2 {
  %4 = alloca %class.GCLogPreciousHandle, align 8
  %5 = getelementptr inbounds i8, ptr %0, i64 424
  %6 = sub i64 0, %1
  %7 = tail call noundef i64 asm sideeffect "lock xaddq $0,($2)", "=r,0,r,~{cc},~{memory},~{dirflag},~{fpsr},~{flags}"(i64 %6, ptr nonnull %5) #13, !srcloc !8
  br i1 %2, label %8, label %28

8:                                                ; preds = %3
  store i32 5, ptr %4, align 8
  %.sroa.21.0..sroa_idx.i = getelementptr inbounds i8, ptr %4, i64 8
  store ptr @_ZN16LogTagSetMappingILN6LogTag4typeE49ELS1_0ELS1_0ELS1_0ELS1_0ELS1_0EE7_tagsetE, ptr %.sroa.21.0..sroa_idx.i, align 8
  %9 = getelementptr inbounds i8, ptr %0, i64 416
  %10 = load volatile i64, ptr %9, align 8
  %11 = lshr i64 %10, 20
  %12 = load volatile i64, ptr %9, align 8
  %13 = getelementptr inbounds i8, ptr %0, i64 408
  %14 = load i64, ptr %13, align 8
  %.not.i = icmp eq i64 %14, 0
  %15 = uitofp i64 %12 to double
  %16 = uitofp i64 %14 to double
  %17 = fdiv double %15, %16
  %18 = fmul double %17, 1.000000e+02
  %19 = select i1 %.not.i, double 0.000000e+00, double %18
  %20 = load volatile i64, ptr %5, align 8
  %21 = lshr i64 %20, 20
  %22 = load volatile i64, ptr %5, align 8
  %23 = uitofp i64 %22 to double
  %24 = fdiv double %23, %16
  %25 = fmul double %24, 1.000000e+02
  %26 = select i1 %.not.i, double 0.000000e+00, double %25
  call void (ptr, ptr, ...) @_ZN19GCLogPreciousHandle5writeEPKcz(ptr noundef nonnull align 8 dereferenceable(16) %4, ptr noundef nonnull @.str.21, i64 noundef %11, double noundef %19, i64 noundef %21, double noundef %26)
  %27 = load volatile i64, ptr %5, align 8
  store volatile i64 %27, ptr %9, align 8
  br label %28

28:                                               ; preds = %8, %3
  ret void
}